target datalayout = "e-m:e-p270:32:32-p271:32:32-p272:64:64-i64:64-i128:128-f80:128-n8:16:32:64-S128"
target triple = "x86_64-pc-linux-gnu"

%"class.boost::locale::generator" = type { %"class.boost::locale::hold_ptr" }
%"class.boost::locale::hold_ptr" = type { ptr }
%"class.boost::locale::localization_backend_manager" = type { %"class.boost::locale::hold_ptr.12" }
%"class.boost::locale::hold_ptr.12" = type { ptr }

; Function Attrs: mustprogress nounwind uwtable
define linkonce_odr hidden void @_ZN5boost6locale8hold_ptrINS0_9generator4dataEEC2EPS3_(ptr noundef nonnull align 8 dereferenceable(8) %0, ptr noundef %1) unnamed_addr #2 comdat align 2 {
  %3 = alloca ptr, align 8
  %4 = alloca ptr, align 8
  store ptr %0, ptr %3, align 8, !tbaa !3
  store ptr %1, ptr %4, align 8, !tbaa !3
  %5 = load ptr, ptr %3, align 8
  %6 = getelementptr inbounds nuw %"class.boost::locale::hold_ptr", ptr %5, i32 0, i32 0
  %7 = load ptr, ptr %4, align 8, !tbaa !3
  store ptr %7, ptr %6, align 8, !tbaa !43
  ret void
}

; Function Attrs: mustprogress uwtable
define void @_ZN5boost6locale9generatorC2Ev(ptr noundef nonnull align 8 dereferenceable(8) %0) unnamed_addr #5 align 2 personality ptr @__gxx_personality_v0 {
  %2 = alloca ptr, align 8
  %3 = alloca %"class.boost::locale::localization_backend_manager", align 8
  %4 = alloca ptr, align 8
  %5 = alloca i32, align 4
  %6 = alloca i1, align 1
  store ptr %0, ptr %2, align 8, !tbaa !3
  %7 = load ptr, ptr %2, align 8
  %8 = getelementptr inbounds nuw %"class.boost::locale::generator", ptr %7, i32 0, i32 0
  %9 = call noalias noundef nonnull ptr @_Znwm(i64 noundef 208) #22
  store i1 true, ptr %6, align 1
  call void @llvm.lifetime.start.p0(i64 8, ptr %3) #19
  invoke void @_ZN5boost6locale28localization_backend_manager6globalEv(ptr dead_on_unwind writable sret(%"class.boost::locale::localization_backend_manager") align 8 %3)
          to label %10 unwind label %13

10:                                               ; preds = %1
  invoke void @_ZN5boost6locale9generator4dataC2ERKNS0_28localization_backend_managerE(ptr noundef nonnull align 8 dereferenceable(208) %9, ptr noundef nonnull align 8 dereferenceable(8) %3)
          to label %11 unwind label %17

11:                                               ; preds = %10
  store i1 false, ptr %6, align 1
  invoke void @_ZN5boost6locale8hold_ptrINS0_9generator4dataEEC2EPS3_(ptr noundef nonnull align 8 dereferenceable(8) %8, ptr noundef %9)
          to label %12 unwind label %17

12:                                               ; preds = %11
  call void @_ZN5boost6locale28localization_backend_managerD1Ev(ptr noundef nonnull align 8 dereferenceable(8) %3) #19
  call void @llvm.lifetime.end.p0(i64 8, ptr %3) #19
  ret void

13:                                               ; preds = %1
  %14 = landingpad { ptr, i32 }
          cleanup
  %15 = extractvalue { ptr, i32 } %14, 0
  store ptr %15, ptr %4, align 8
  %16 = extractvalue { ptr, i32 } %14, 1
  store i32 %16, ptr %5, align 4
  br label %21

17:                                               ; preds = %11, %10
  %18 = landingpad { ptr, i32 }
          cleanup
  %19 = extractvalue { ptr, i32 } %18, 0
  store ptr %19, ptr %4, align 8
  %20 = extractvalue { ptr, i32 } %18, 1
  store i32 %20, ptr %5, align 4
  call void @_ZN5boost6locale28localization_backend_managerD1Ev(ptr noundef nonnull align 8 dereferenceable(8) %3) #19
  br label %21

21:                                               ; preds = %17, %13
  call void @llvm.lifetime.end.p0(i64 8, ptr %3) #19
  %22 = load i1, ptr %6, align 1
  br i1 %22, label %23, label %24

23:                                               ; preds = %21
  call void @_ZdlPvm(ptr noundef %9, i64 noundef 208) #23
  br label %24

24:                                               ; preds = %23, %21
  br label %25

25:                                               ; preds = %24
  %26 = load ptr, ptr %4, align 8
  %27 = load i32, ptr %5, align 4
  %28 = insertvalue { ptr, i32 } poison, ptr %26, 0
  %29 = insertvalue { ptr, i32 } %28, i32 %27, 1
  resume { ptr, i32 } %29
}