; Function Attrs: mustprogress uwtable
define void @_ZN5boost6locale9generatorC2Ev(ptr nocapture noundef nonnull writeonly align 8 dereferenceable(8) %0) unnamed_addr #5 align 2 personality ptr @__gxx_personality_v0 {
  %2 = alloca %"class.boost::locale::localization_backend_manager", align 8
  %3 = tail call noalias noundef nonnull dereferenceable(208) ptr @_Znwm(i64 noundef 208) #30
  call void @llvm.lifetime.start.p0(i64 8, ptr nonnull %2) #27
  invoke void @_ZN5boost6locale28localization_backend_manager6globalEv(ptr dead_on_unwind nonnull writable sret(%"class.boost::locale::localization_backend_manager") align 8 %2)
          to label %4 unwind label %6

4:                                                ; preds = %1
  invoke void @_ZN5boost6locale9generator4dataC2ERKNS0_28localization_backend_managerE(ptr noundef nonnull align 8 dereferenceable(208) %3, ptr noundef nonnull align 8 dereferenceable(8) %2)
          to label %5 unwind label %8

5:                                                ; preds = %4
  store ptr %3, ptr %0, align 8, !tbaa !17
  call void @_ZN5boost6locale28localization_backend_managerD1Ev(ptr noundef nonnull align 8 dereferenceable(8) %2) #27
  call void @llvm.lifetime.end.p0(i64 8, ptr nonnull %2) #27
  ret void

6:                                                ; preds = %1
  %7 = landingpad { ptr, i32 }
          cleanup
  br label %10

8:                                                ; preds = %4
  %9 = landingpad { ptr, i32 }
          cleanup
  call void @_ZN5boost6locale28localization_backend_managerD1Ev(ptr noundef nonnull align 8 dereferenceable(8) %2) #27
  br label %10

10:                                               ; preds = %8, %6
  %.pn = phi { ptr, i32 } [ %9, %8 ], [ %7, %6 ]
  call void @llvm.lifetime.end.p0(i64 8, ptr nonnull %2) #27
  call void @_ZdlPvm(ptr noundef nonnull %3, i64 noundef 208) #31
  resume { ptr, i32 } %.pn
}